target datalayout = "e-m:e-p270:32:32-p271:32:32-p272:64:64-i64:64-i128:128-f80:128-n8:16:32:64-S128"
target triple = "x86_64-pc-linux-gnu"

%"class.datalog::mk_array_eq_rewrite" = type <{ %"class.datalog::rule_transformer::plugin", ptr, ptr, %class.array_util, ptr, ptr, ptr, i32, [4 x i8] }>
%"class.datalog::rule_transformer::plugin" = type { ptr, i32, i8, ptr }
%class.array_util = type { %class.array_recognizers, ptr }
%class.array_recognizers = type { i32 }
%class.obj_hashtable = type { %class.core_hashtable.base, [4 x i8] }
%class.core_hashtable.base = type <{ ptr, i32, i32, i32 }>
%class.ptr_vector.2 = type { %class.vector.3 }
%class.vector.3 = type { ptr }
%class.expr_sparse_mark = type { %class.obj_hashtable }
%class.ptr_vector.34 = type { %class.vector.35 }
%class.vector.35 = type { ptr }
%class.obj_hashtable.62 = type { %class.core_hashtable.base.66, [4 x i8] }
%class.core_hashtable.base.66 = type <{ ptr, i32, i32, i32 }>
%"class.datalog::rule_set" = type { ptr, ptr, %class.ref_vector.77, %class.obj_map.80, %"class.datalog::rule_dependencies", %class.scoped_ptr.90, %class.obj_hashtable.62, %class.obj_map.91, %class.obj_map.91, %class.ref_vector.96, %class.ptr_vector.34 }
%class.ref_vector.77 = type { %class.ref_vector_core.78 }
%class.ref_vector_core.78 = type { %class.ref_manager_wrapper.79, %class.ptr_vector.34 }
%class.ref_manager_wrapper.79 = type { ptr }
%class.obj_map.80 = type { %class.core_hashtable.81 }
%class.core_hashtable.81 = type <{ ptr, i32, i32, i32, [4 x i8] }>
%"class.datalog::rule_dependencies" = type { %class.obj_map.85, ptr, %class.ptr_vector.2, %class.expr_sparse_mark, %class.obj_hashtable.62 }
%class.obj_map.85 = type { %class.core_hashtable.86 }
%class.core_hashtable.86 = type <{ ptr, i32, i32, i32, [4 x i8] }>
%class.scoped_ptr.90 = type { ptr }
%class.obj_map.91 = type { %class.core_hashtable.92 }
%class.core_hashtable.92 = type <{ ptr, i32, i32, i32, [4 x i8] }>
%class.ref_vector.96 = type { %class.ref_vector_core.97 }
%class.ref_vector_core.97 = type { %class.ref_manager_wrapper.98, %class.ptr_vector.99 }
%class.ref_manager_wrapper.98 = type { ptr }
%class.ptr_vector.99 = type { %class.vector.100 }
%class.vector.100 = type { ptr }
%class.scoped_ptr.133 = type { ptr }

; Function Attrs: mustprogress nounwind uwtable
define linkonce_odr hidden noundef i32 @_ZNK6vectorIPN7datalog4ruleELb0EjE4sizeEv(ptr noundef nonnull align 8 dereferenceable(8) %0) #5 comdat align 2 {
  %2 = alloca i32, align 4
  %3 = alloca ptr, align 8
  store ptr %0, ptr %3, align 8, !tbaa !307
  %4 = load ptr, ptr %3, align 8
  %5 = getelementptr inbounds nuw %class.vector.35, ptr %4, i32 0, i32 0
  %6 = load ptr, ptr %5, align 8, !tbaa !309
  %7 = icmp eq ptr %6, null
  br i1 %7, label %8, label %9

8:                                                ; preds = %1
  store i32 0, ptr %2, align 4
  br label %14

9:                                                ; preds = %1
  %10 = getelementptr inbounds nuw %class.vector.35, ptr %4, i32 0, i32 0
  %11 = load ptr, ptr %10, align 8, !tbaa !309
  %12 = getelementptr inbounds i32, ptr %11, i64 -1
  %13 = load i32, ptr %12, align 4, !tbaa !10
  store i32 %13, ptr %2, align 4
  br label %14

14:                                               ; preds = %9, %8
  %15 = load i32, ptr %2, align 4
  ret i32 %15
}

; Function Attrs: mustprogress nounwind uwtable
define linkonce_odr hidden noundef ptr @_ZNK6vectorIPN7datalog4ruleELb0EjE4dataEv(ptr noundef nonnull align 8 dereferenceable(8) %0) #5 comdat align 2 {
  %2 = alloca ptr, align 8
  store ptr %0, ptr %2, align 8, !tbaa !307
  %3 = load ptr, ptr %2, align 8
  %4 = getelementptr inbounds nuw %class.vector.35, ptr %3, i32 0, i32 0
  %5 = load ptr, ptr %4, align 8, !tbaa !309
  ret ptr %5
}

; Function Attrs: mustprogress uwtable
define linkonce_odr hidden noundef i32 @_ZNK15ref_vector_coreIN7datalog4ruleE19ref_manager_wrapperIS1_NS0_12rule_managerEEE4sizeEv(ptr noundef nonnull align 8 dereferenceable(16) %0) #4 comdat align 2 {
  %2 = alloca ptr, align 8
  store ptr %0, ptr %2, align 8, !tbaa !305
  %3 = load ptr, ptr %2, align 8
  %4 = getelementptr inbounds nuw %class.ref_vector_core.78, ptr %3, i32 0, i32 1
  %5 = call noundef i32 @_ZNK6vectorIPN7datalog4ruleELb0EjE4sizeEv(ptr noundef nonnull align 8 dereferenceable(8) %4)
  ret i32 %5
}

; Function Attrs: mustprogress uwtable
define linkonce_odr hidden noundef ptr @_ZNK15ref_vector_coreIN7datalog4ruleE19ref_manager_wrapperIS1_NS0_12rule_managerEEE4dataEv(ptr noundef nonnull align 8 dereferenceable(16) %0) #4 comdat align 2 {
  %2 = alloca ptr, align 8
  store ptr %0, ptr %2, align 8, !tbaa !305
  %3 = load ptr, ptr %2, align 8
  %4 = getelementptr inbounds nuw %class.ref_vector_core.78, ptr %3, i32 0, i32 1
  %5 = call noundef ptr @_ZNK6vectorIPN7datalog4ruleELb0EjE4dataEv(ptr noundef nonnull align 8 dereferenceable(8) %4)
  ret ptr %5
}

; Function Attrs: mustprogress nounwind uwtable
define linkonce_odr hidden noundef ptr @_ZN10scoped_ptrIN7datalog8rule_setEE6detachEv(ptr noundef nonnull align 8 dereferenceable(8) %0) #5 comdat align 2 {
  %2 = alloca ptr, align 8
  %3 = alloca ptr, align 8
  store ptr %0, ptr %2, align 8, !tbaa !231
  %4 = load ptr, ptr %2, align 8
  call void @llvm.lifetime.start.p0(i64 8, ptr %3) #3
  %5 = getelementptr inbounds nuw %class.scoped_ptr.133, ptr %4, i32 0, i32 0
  %6 = load ptr, ptr %5, align 8, !tbaa !233
  store ptr %6, ptr %3, align 8, !tbaa !224
  %7 = getelementptr inbounds nuw %class.scoped_ptr.133, ptr %4, i32 0, i32 0
  store ptr null, ptr %7, align 8, !tbaa !233
  %8 = load ptr, ptr %3, align 8, !tbaa !224
  call void @llvm.lifetime.end.p0(i64 8, ptr %3) #3
  ret ptr %8
}

; Function Attrs: mustprogress nounwind uwtable
define linkonce_odr hidden noundef nonnull align 8 dereferenceable(248) ptr @_ZN10scoped_ptrIN7datalog8rule_setEEdeEv(ptr noundef nonnull align 8 dereferenceable(8) %0) #5 comdat align 2 {
  %2 = alloca ptr, align 8
  store ptr %0, ptr %2, align 8, !tbaa !231
  %3 = load ptr, ptr %2, align 8
  %4 = getelementptr inbounds nuw %class.scoped_ptr.133, ptr %3, i32 0, i32 0
  %5 = load ptr, ptr %4, align 8, !tbaa !233
  ret ptr %5
}

; Function Attrs: mustprogress uwtable
define linkonce_odr hidden noundef ptr @_ZNK7datalog8rule_set3endEv(ptr noundef nonnull align 8 dereferenceable(248) %0) #4 comdat align 2 {
  %2 = alloca ptr, align 8
  store ptr %0, ptr %2, align 8, !tbaa !224
  %3 = load ptr, ptr %2, align 8
  %4 = getelementptr inbounds nuw %"class.datalog::rule_set", ptr %3, i32 0, i32 2
  %5 = call noundef ptr @_ZNK15ref_vector_coreIN7datalog4ruleE19ref_manager_wrapperIS1_NS0_12rule_managerEEE4dataEv(ptr noundef nonnull align 8 dereferenceable(16) %4)
  %6 = getelementptr inbounds nuw %"class.datalog::rule_set", ptr %3, i32 0, i32 2
  %7 = call noundef i32 @_ZNK15ref_vector_coreIN7datalog4ruleE19ref_manager_wrapperIS1_NS0_12rule_managerEEE4sizeEv(ptr noundef nonnull align 8 dereferenceable(16) %6)
  %8 = zext i32 %7 to i64
  %9 = getelementptr inbounds nuw ptr, ptr %5, i64 %8
  ret ptr %9
}

; Function Attrs: mustprogress uwtable
define linkonce_odr hidden noundef ptr @_ZNK7datalog8rule_set5beginEv(ptr noundef nonnull align 8 dereferenceable(248) %0) #4 comdat align 2 {
  %2 = alloca ptr, align 8
  store ptr %0, ptr %2, align 8, !tbaa !224
  %3 = load ptr, ptr %2, align 8
  %4 = getelementptr inbounds nuw %"class.datalog::rule_set", ptr %3, i32 0, i32 2
  %5 = call noundef ptr @_ZNK15ref_vector_coreIN7datalog4ruleE19ref_manager_wrapperIS1_NS0_12rule_managerEEE4dataEv(ptr noundef nonnull align 8 dereferenceable(16) %4)
  ret ptr %5
}

; Function Attrs: mustprogress nounwind uwtable
define linkonce_odr hidden noundef nonnull align 8 dereferenceable(1104) ptr @_ZNK7datalog8rule_set16get_rule_managerEv(ptr noundef nonnull align 8 dereferenceable(248) %0) #5 comdat align 2 {
  %2 = alloca ptr, align 8
  store ptr %0, ptr %2, align 8, !tbaa !224
  %3 = load ptr, ptr %2, align 8
  %4 = getelementptr inbounds nuw %"class.datalog::rule_set", ptr %3, i32 0, i32 1
  %5 = load ptr, ptr %4, align 8, !tbaa !235
  ret ptr %5
}

; Function Attrs: mustprogress nounwind uwtable
define linkonce_odr hidden noundef ptr @_ZNK10scoped_ptrIN7datalog8rule_setEE3getEv(ptr noundef nonnull align 8 dereferenceable(8) %0) #5 comdat align 2 {
  %2 = alloca ptr, align 8
  store ptr %0, ptr %2, align 8, !tbaa !231
  %3 = load ptr, ptr %2, align 8
  %4 = getelementptr inbounds nuw %class.scoped_ptr.133, ptr %3, i32 0, i32 0
  %5 = load ptr, ptr %4, align 8, !tbaa !233
  ret ptr %5
}

; Function Attrs: mustprogress nounwind uwtable
define linkonce_odr hidden noundef ptr @_ZNK10scoped_ptrIN7datalog8rule_setEEptEv(ptr noundef nonnull align 8 dereferenceable(8) %0) #5 comdat align 2 {
  %2 = alloca ptr, align 8
  store ptr %0, ptr %2, align 8, !tbaa !231
  %3 = load ptr, ptr %2, align 8
  %4 = getelementptr inbounds nuw %class.scoped_ptr.133, ptr %3, i32 0, i32 0
  %5 = load ptr, ptr %4, align 8, !tbaa !233
  ret ptr %5
}

; Function Attrs: mustprogress nounwind uwtable
define linkonce_odr hidden void @_ZN10scoped_ptrIN7datalog8rule_setEEC2EPS1_(ptr noundef nonnull align 8 dereferenceable(8) %0, ptr noundef %1) unnamed_addr #5 comdat align 2 {
  %3 = alloca ptr, align 8
  %4 = alloca ptr, align 8
  store ptr %0, ptr %3, align 8, !tbaa !231
  store ptr %1, ptr %4, align 8, !tbaa !224
  %5 = load ptr, ptr %3, align 8
  %6 = getelementptr inbounds nuw %class.scoped_ptr.133, ptr %5, i32 0, i32 0
  %7 = load ptr, ptr %4, align 8, !tbaa !224
  store ptr %7, ptr %6, align 8, !tbaa !233
  ret void
}

; Function Attrs: mustprogress uwtable
define hidden noundef ptr @_ZN7datalog19mk_array_eq_rewriteclERKNS_8rule_setE(ptr noundef nonnull align 8 dereferenceable(84) %0, ptr noundef nonnull align 8 dereferenceable(248) %1) unnamed_addr #4 align 2 personality ptr @__gxx_personality_v0 {
  %3 = alloca ptr, align 8
  %4 = alloca ptr, align 8
  %5 = alloca %class.scoped_ptr.133, align 8
  %6 = alloca ptr, align 8
  %7 = alloca i32, align 4
  %8 = alloca ptr, align 8
  %9 = alloca ptr, align 8
  %10 = alloca ptr, align 8
  %11 = alloca ptr, align 8
  store ptr %0, ptr %3, align 8, !tbaa !3
  store ptr %1, ptr %4, align 8, !tbaa !224
  %12 = load ptr, ptr %3, align 8
  %13 = load ptr, ptr %4, align 8, !tbaa !224
  %14 = getelementptr inbounds nuw %"class.datalog::mk_array_eq_rewrite", ptr %12, i32 0, i32 4
  store ptr %13, ptr %14, align 8, !tbaa !225
  call void @llvm.lifetime.start.p0(i64 8, ptr %5) #3
  %15 = call noalias noundef ptr @_ZN6memory8allocateEm(i64 noundef 248)
  %16 = getelementptr inbounds nuw %"class.datalog::mk_array_eq_rewrite", ptr %12, i32 0, i32 2
  %17 = load ptr, ptr %16, align 8, !tbaa !226
  call void @_ZN7datalog8rule_setC1ERNS_7contextE(ptr noundef nonnull align 8 dereferenceable(248) %15, ptr noundef nonnull align 8 dereferenceable(3028) %17)
  call void @_ZN10scoped_ptrIN7datalog8rule_setEEC2EPS1_(ptr noundef nonnull align 8 dereferenceable(8) %5, ptr noundef %15)
  %18 = invoke noundef ptr @_ZNK10scoped_ptrIN7datalog8rule_setEEptEv(ptr noundef nonnull align 8 dereferenceable(8) %5)
          to label %19 unwind label %41

19:                                               ; preds = %2
  %20 = load ptr, ptr %4, align 8, !tbaa !224
  invoke void @_ZN7datalog8rule_set18inherit_predicatesERKS0_(ptr noundef nonnull align 8 dereferenceable(248) %18, ptr noundef nonnull align 8 dereferenceable(248) %20)
          to label %21 unwind label %41

21:                                               ; preds = %19
  %22 = invoke noundef ptr @_ZNK10scoped_ptrIN7datalog8rule_setEE3getEv(ptr noundef nonnull align 8 dereferenceable(8) %5)
          to label %23 unwind label %41

23:                                               ; preds = %21
  %24 = getelementptr inbounds nuw %"class.datalog::mk_array_eq_rewrite", ptr %12, i32 0, i32 5
  store ptr %22, ptr %24, align 8, !tbaa !227
  %25 = load ptr, ptr %4, align 8, !tbaa !224
  %26 = invoke noundef nonnull align 8 dereferenceable(1104) ptr @_ZNK7datalog8rule_set16get_rule_managerEv(ptr noundef nonnull align 8 dereferenceable(248) %25)
          to label %27 unwind label %41

27:                                               ; preds = %23
  %28 = getelementptr inbounds nuw %"class.datalog::mk_array_eq_rewrite", ptr %12, i32 0, i32 6
  store ptr %26, ptr %28, align 8, !tbaa !228
  call void @llvm.lifetime.start.p0(i64 8, ptr %8) #3
  %29 = load ptr, ptr %4, align 8, !tbaa !224
  store ptr %29, ptr %8, align 8, !tbaa !224
  call void @llvm.lifetime.start.p0(i64 8, ptr %9) #3
  %30 = load ptr, ptr %8, align 8, !tbaa !224
  %31 = invoke noundef ptr @_ZNK7datalog8rule_set5beginEv(ptr noundef nonnull align 8 dereferenceable(248) %30)
          to label %32 unwind label %45

32:                                               ; preds = %27
  store ptr %31, ptr %9, align 8, !tbaa !229
  call void @llvm.lifetime.start.p0(i64 8, ptr %10) #3
  %33 = load ptr, ptr %8, align 8, !tbaa !224
  %34 = invoke noundef ptr @_ZNK7datalog8rule_set3endEv(ptr noundef nonnull align 8 dereferenceable(248) %33)
          to label %35 unwind label %49

35:                                               ; preds = %32
  store ptr %34, ptr %10, align 8, !tbaa !229
  br label %36

36:                                               ; preds = %60, %35
  %37 = load ptr, ptr %9, align 8, !tbaa !229
  %38 = load ptr, ptr %10, align 8, !tbaa !229
  %39 = icmp ne ptr %37, %38
  br i1 %39, label %53, label %40

40:                                               ; preds = %36
  call void @llvm.lifetime.end.p0(i64 8, ptr %10) #3
  call void @llvm.lifetime.end.p0(i64 8, ptr %9) #3
  call void @llvm.lifetime.end.p0(i64 8, ptr %8) #3
  br label %69

41:                                               ; preds = %69, %23, %21, %19, %2
  %42 = landingpad { ptr, i32 }
          cleanup
  %43 = extractvalue { ptr, i32 } %42, 0
  store ptr %43, ptr %6, align 8
  %44 = extractvalue { ptr, i32 } %42, 1
  store i32 %44, ptr %7, align 4
  br label %72

45:                                               ; preds = %27
  %46 = landingpad { ptr, i32 }
          cleanup
  %47 = extractvalue { ptr, i32 } %46, 0
  store ptr %47, ptr %6, align 8
  %48 = extractvalue { ptr, i32 } %46, 1
  store i32 %48, ptr %7, align 4
  br label %68

49:                                               ; preds = %32
  %50 = landingpad { ptr, i32 }
          cleanup
  %51 = extractvalue { ptr, i32 } %50, 0
  store ptr %51, ptr %6, align 8
  %52 = extractvalue { ptr, i32 } %50, 1
  store i32 %52, ptr %7, align 4
  br label %67

53:                                               ; preds = %36
  call void @llvm.lifetime.start.p0(i64 8, ptr %11) #3
  %54 = load ptr, ptr %9, align 8, !tbaa !229
  %55 = load ptr, ptr %54, align 8, !tbaa !230
  store ptr %55, ptr %11, align 8, !tbaa !230
  %56 = load ptr, ptr %11, align 8, !tbaa !230
  %57 = invoke noundef nonnull align 8 dereferenceable(248) ptr @_ZN10scoped_ptrIN7datalog8rule_setEEdeEv(ptr noundef nonnull align 8 dereferenceable(8) %5)
          to label %58 unwind label %63

58:                                               ; preds = %53
  invoke void @_ZN7datalog19mk_array_eq_rewrite16instantiate_ruleERKNS_4ruleERNS_8rule_setE(ptr noundef nonnull align 8 dereferenceable(84) %12, ptr noundef nonnull align 8 dereferenceable(80) %56, ptr noundef nonnull align 8 dereferenceable(248) %57)
          to label %59 unwind label %63

59:                                               ; preds = %58
  call void @llvm.lifetime.end.p0(i64 8, ptr %11) #3
  br label %60

60:                                               ; preds = %59
  %61 = load ptr, ptr %9, align 8, !tbaa !229
  %62 = getelementptr inbounds nuw ptr, ptr %61, i32 1
  store ptr %62, ptr %9, align 8, !tbaa !229
  br label %36

63:                                               ; preds = %58, %53
  %64 = landingpad { ptr, i32 }
          cleanup
  %65 = extractvalue { ptr, i32 } %64, 0
  store ptr %65, ptr %6, align 8
  %66 = extractvalue { ptr, i32 } %64, 1
  store i32 %66, ptr %7, align 4
  call void @llvm.lifetime.end.p0(i64 8, ptr %11) #3
  br label %67

67:                                               ; preds = %63, %49
  call void @llvm.lifetime.end.p0(i64 8, ptr %10) #3
  br label %68

68:                                               ; preds = %67, %45
  call void @llvm.lifetime.end.p0(i64 8, ptr %9) #3
  call void @llvm.lifetime.end.p0(i64 8, ptr %8) #3
  br label %72

69:                                               ; preds = %40
  %70 = invoke noundef ptr @_ZN10scoped_ptrIN7datalog8rule_setEE6detachEv(ptr noundef nonnull align 8 dereferenceable(8) %5)
          to label %71 unwind label %41

71:                                               ; preds = %69
  call void @_ZN10scoped_ptrIN7datalog8rule_setEED2Ev(ptr noundef nonnull align 8 dereferenceable(8) %5) #3
  call void @llvm.lifetime.end.p0(i64 8, ptr %5) #3
  ret ptr %70

72:                                               ; preds = %68, %41
  call void @_ZN10scoped_ptrIN7datalog8rule_setEED2Ev(ptr noundef nonnull align 8 dereferenceable(8) %5) #3
  call void @llvm.lifetime.end.p0(i64 8, ptr %5) #3
  br label %73

73:                                               ; preds = %72
  %74 = load ptr, ptr %6, align 8
  %75 = load i32, ptr %7, align 4
  %76 = insertvalue { ptr, i32 } poison, ptr %74, 0
  %77 = insertvalue { ptr, i32 } %76, i32 %75, 1
  resume { ptr, i32 } %77
}