; Function Attrs: mustprogress uwtable
define hidden noundef ptr @_ZN7datalog19mk_array_eq_rewriteclERKNS_8rule_setE(ptr noundef nonnull align 8 captures(none) dereferenceable(84) initializes((56, 64)) %0, ptr noundef nonnull align 8 dereferenceable(248) %1) unnamed_addr #3 align 2 personality ptr @__gxx_personality_v0 {
  %3 = alloca %class.scoped_ptr.133, align 8
  %4 = getelementptr inbounds nuw i8, ptr %0, i64 56
  store ptr %1, ptr %4, align 8, !tbaa !213
  call void @llvm.lifetime.start.p0(i64 8, ptr nonnull %3) #18
  %5 = tail call noalias noundef ptr @_ZN6memory8allocateEm(i64 noundef 248)
  %6 = getelementptr inbounds nuw i8, ptr %0, i64 32
  %7 = load ptr, ptr %6, align 8, !tbaa !216
  tail call void @_ZN7datalog8rule_setC1ERNS_7contextE(ptr noundef nonnull align 8 dereferenceable(248) %5, ptr noundef nonnull align 8 dereferenceable(3028) %7)
  store ptr %5, ptr %3, align 8, !tbaa !217
  invoke void @_ZN7datalog8rule_set18inherit_predicatesERKS0_(ptr noundef nonnull align 8 dereferenceable(248) %5, ptr noundef nonnull align 8 dereferenceable(248) %1)
          to label %8 unwind label %20

8:                                                ; preds = %2
  %9 = getelementptr inbounds nuw i8, ptr %0, i64 64
  store ptr %5, ptr %9, align 8, !tbaa !219
  %10 = getelementptr inbounds nuw i8, ptr %1, i64 8
  %11 = load ptr, ptr %10, align 8, !tbaa !220
  %12 = getelementptr inbounds nuw i8, ptr %0, i64 72
  store ptr %11, ptr %12, align 8, !tbaa !221
  %13 = getelementptr inbounds nuw i8, ptr %1, i64 24
  %14 = load ptr, ptr %13, align 8, !tbaa !222
  %15 = icmp eq ptr %14, null
  br i1 %15, label %_ZN10scoped_ptrIN7datalog8rule_setEED2Ev.exit, label %_ZNK7datalog8rule_set3endEv.exit

_ZNK7datalog8rule_set3endEv.exit:                 ; preds = %8
  %16 = getelementptr inbounds i8, ptr %14, i64 -4
  %17 = load i32, ptr %16, align 4, !tbaa !223
  %18 = zext i32 %17 to i64
  %19 = getelementptr inbounds nuw ptr, ptr %14, i64 %18
  %.not20 = icmp eq i32 %17, 0
  br i1 %.not20, label %_ZN10scoped_ptrIN7datalog8rule_setEED2Ev.exit, label %.lr.ph

_ZN10scoped_ptrIN7datalog8rule_setEED2Ev.exit:    ; preds = %23, %8, %_ZNK7datalog8rule_set3endEv.exit
  call void @llvm.lifetime.end.p0(i64 8, ptr nonnull %3) #18
  ret ptr %5

20:                                               ; preds = %2
  %21 = landingpad { ptr, i32 }
          cleanup
  br label %27

.lr.ph:                                           ; preds = %_ZNK7datalog8rule_set3endEv.exit, %23
  %.01621 = phi ptr [ %24, %23 ], [ %14, %_ZNK7datalog8rule_set3endEv.exit ]
  %22 = load ptr, ptr %.01621, align 8, !tbaa !224
  invoke void @_ZN7datalog19mk_array_eq_rewrite16instantiate_ruleERKNS_4ruleERNS_8rule_setE(ptr noundef nonnull align 8 dereferenceable(84) %0, ptr noundef nonnull align 8 dereferenceable(80) %22, ptr noundef nonnull align 8 dereferenceable(248) %5)
          to label %23 unwind label %25

23:                                               ; preds = %.lr.ph
  %24 = getelementptr inbounds nuw i8, ptr %.01621, i64 8
  %.not = icmp eq ptr %24, %19
  br i1 %.not, label %_ZN10scoped_ptrIN7datalog8rule_setEED2Ev.exit, label %.lr.ph

25:                                               ; preds = %.lr.ph
  %26 = landingpad { ptr, i32 }
          cleanup
  br label %27

27:                                               ; preds = %25, %20
  %.pn.pn.pn = phi { ptr, i32 } [ %21, %20 ], [ %26, %25 ]
  call void @_ZN10scoped_ptrIN7datalog8rule_setEED2Ev(ptr noundef nonnull align 8 dereferenceable(8) %3) #18
  call void @llvm.lifetime.end.p0(i64 8, ptr nonnull %3) #18
  resume { ptr, i32 } %.pn.pn.pn
}